; Function Attrs: nounwind uwtable
define void @dt_gui_preferences_int_update(ptr noundef %0) local_unnamed_addr #0 {
  %2 = tail call ptr @gtk_widget_get_name(ptr noundef %0) #12
  %3 = tail call i32 @dt_conf_get_int(ptr noundef %2) #12
  %4 = tail call i64 @gtk_spin_button_get_type() #13
  %5 = tail call ptr @g_type_check_instance_cast(ptr noundef %0, i64 noundef %4) #12
  %6 = sitofp i32 %3 to double
  tail call void @gtk_spin_button_set_value(ptr noundef %5, double noundef %6) #12
  ret void
}